target datalayout = "e-m:e-p270:32:32-p271:32:32-p272:64:64-i64:64-i128:128-f80:128-n8:16:32:64-S128"
target triple = "x86_64-pc-linux-gnu"

%struct.SDL_AtomicInt = type { i32 }
%struct.SDL_Rect = type { i32, i32, i32, i32 }
%struct.SDL_VideoDevice = type { ptr, ptr, ptr, ptr, ptr, ptr, ptr, ptr, ptr, ptr, ptr, ptr, ptr, ptr, ptr, ptr, ptr, ptr, ptr, ptr, ptr, ptr, ptr, ptr, ptr, ptr, ptr, ptr, ptr, ptr, ptr, ptr, ptr, ptr, ptr, ptr, ptr, ptr, ptr, ptr, ptr, ptr, ptr, ptr, ptr, ptr, ptr, ptr, ptr, ptr, ptr, ptr, ptr, ptr, ptr, ptr, ptr, ptr, ptr, ptr, ptr, ptr, ptr, ptr, ptr, ptr, ptr, ptr, ptr, ptr, ptr, ptr, ptr, ptr, ptr, ptr, ptr, ptr, ptr, ptr, ptr, ptr, ptr, ptr, ptr, ptr, ptr, ptr, ptr, ptr, ptr, ptr, ptr, ptr, ptr, ptr, ptr, i64, i8, i8, i8, ptr, i32, ptr, %struct.SDL_Rect, ptr, ptr, i32, ptr, ptr, ptr, ptr, i64, ptr, i8, i32, i32, %struct.anon, ptr, ptr, ptr, ptr, ptr, ptr, %struct.SDL_AtomicInt, %struct.SDL_AtomicInt, i8, %struct.anon.0, ptr, ptr, ptr, ptr, ptr }
%struct.anon = type { i32, i32, i32, i32, i32, i32, i32, i32, i32, i32, i32, i32, i32, i32, i32, i32, i32, i32, i32, i32, i32, i32, i32, i32, i32, i32, i32, i32, i32, [256 x i8], ptr }
%struct.anon.0 = type { ptr, ptr, i32, [256 x i8], ptr }

@.str.1 = private unnamed_addr constant [41 x i8] c"Video subsystem has not been initialized\00", align 1
@_this = internal global ptr null, align 8
@.str.36 = private unnamed_addr constant [7 x i8] c"OpenGL\00", align 1
@.str.61 = private unnamed_addr constant [30 x i8] c"OpenGL library already loaded\00", align 1
@.str.169 = private unnamed_addr constant [55 x i8] c"No dynamic %s support in current SDL video driver (%s)\00", align 1

; Function Attrs: nounwind uwtable
define internal zeroext i1 @SDL_DllNotSupported(ptr noundef %0) #0 {
  %2 = alloca ptr, align 8
  store ptr %0, ptr %2, align 8
  %3 = load ptr, ptr %2, align 8
  %4 = load ptr, ptr @_this, align 8
  %5 = getelementptr inbounds nuw %struct.SDL_VideoDevice, ptr %4, i32 0, i32 0
  %6 = load ptr, ptr %5, align 8
  %7 = call zeroext i1 (ptr, ...) @SDL_SetError_REAL(ptr noundef @.str.169, ptr noundef %3, ptr noundef %6)
  ret i1 %7
}

; Function Attrs: nounwind uwtable
define hidden zeroext i1 @SDL_UninitializedVideo() #0 {
  %1 = call zeroext i1 (ptr, ...) @SDL_SetError_REAL(ptr noundef @.str.1)
  ret i1 %1
}

; Function Attrs: nounwind uwtable
define hidden zeroext i1 @SDL_GL_LoadLibrary_REAL(ptr noundef %0) #0 {
  %2 = alloca i1, align 1
  %3 = alloca ptr, align 8
  %4 = alloca i8, align 1
  %5 = alloca i32, align 4
  store ptr %0, ptr %3, align 8
  call void @llvm.lifetime.start.p0(i64 1, ptr %4) #10
  %6 = load ptr, ptr @_this, align 8
  %7 = icmp ne ptr %6, null
  br i1 %7, label %10, label %8

8:                                                ; preds = %1
  %9 = call zeroext i1 @SDL_UninitializedVideo()
  store i1 %9, ptr %2, align 1
  store i32 1, ptr %5, align 4
  br label %68

10:                                               ; preds = %1
  %11 = load ptr, ptr @_this, align 8
  %12 = getelementptr inbounds nuw %struct.SDL_VideoDevice, ptr %11, i32 0, i32 117
  %13 = getelementptr inbounds nuw %struct.anon, ptr %12, i32 0, i32 28
  %14 = load i32, ptr %13, align 8
  %15 = icmp ne i32 %14, 0
  br i1 %15, label %16, label %30

16:                                               ; preds = %10
  %17 = load ptr, ptr %3, align 8
  %18 = icmp ne ptr %17, null
  br i1 %18, label %19, label %29

19:                                               ; preds = %16
  %20 = load ptr, ptr %3, align 8
  %21 = load ptr, ptr @_this, align 8
  %22 = getelementptr inbounds nuw %struct.SDL_VideoDevice, ptr %21, i32 0, i32 117
  %23 = getelementptr inbounds nuw %struct.anon, ptr %22, i32 0, i32 29
  %24 = getelementptr inbounds [256 x i8], ptr %23, i64 0, i64 0
  %25 = call i32 @SDL_strcmp_REAL(ptr noundef %20, ptr noundef %24)
  %26 = icmp ne i32 %25, 0
  br i1 %26, label %27, label %29

27:                                               ; preds = %19
  %28 = call zeroext i1 (ptr, ...) @SDL_SetError_REAL(ptr noundef @.str.61)
  store i1 %28, ptr %2, align 1
  store i32 1, ptr %5, align 4
  br label %68

29:                                               ; preds = %19, %16
  store i8 1, ptr %4, align 1
  br label %45

30:                                               ; preds = %10
  %31 = load ptr, ptr @_this, align 8
  %32 = getelementptr inbounds nuw %struct.SDL_VideoDevice, ptr %31, i32 0, i32 50
  %33 = load ptr, ptr %32, align 8
  %34 = icmp ne ptr %33, null
  br i1 %34, label %37, label %35

35:                                               ; preds = %30
  %36 = call zeroext i1 @SDL_DllNotSupported(ptr noundef @.str.36)
  store i1 %36, ptr %2, align 1
  store i32 1, ptr %5, align 4
  br label %68

37:                                               ; preds = %30
  %38 = load ptr, ptr @_this, align 8
  %39 = getelementptr inbounds nuw %struct.SDL_VideoDevice, ptr %38, i32 0, i32 50
  %40 = load ptr, ptr %39, align 8
  %41 = load ptr, ptr @_this, align 8
  %42 = load ptr, ptr %3, align 8
  %43 = call zeroext i1 %40(ptr noundef %41, ptr noundef %42)
  %44 = zext i1 %43 to i8
  store i8 %44, ptr %4, align 1
  br label %45

45:                                               ; preds = %37, %29
  %46 = load i8, ptr %4, align 1, !range !5, !noundef !6
  %47 = trunc i8 %46 to i1
  br i1 %47, label %48, label %54

48:                                               ; preds = %45
  %49 = load ptr, ptr @_this, align 8
  %50 = getelementptr inbounds nuw %struct.SDL_VideoDevice, ptr %49, i32 0, i32 117
  %51 = getelementptr inbounds nuw %struct.anon, ptr %50, i32 0, i32 28
  %52 = load i32, ptr %51, align 8
  %53 = add nsw i32 %52, 1
  store i32 %53, ptr %51, align 8
  br label %65

54:                                               ; preds = %45
  %55 = load ptr, ptr @_this, align 8
  %56 = getelementptr inbounds nuw %struct.SDL_VideoDevice, ptr %55, i32 0, i32 52
  %57 = load ptr, ptr %56, align 8
  %58 = icmp ne ptr %57, null
  br i1 %58, label %59, label %64

59:                                               ; preds = %54
  %60 = load ptr, ptr @_this, align 8
  %61 = getelementptr inbounds nuw %struct.SDL_VideoDevice, ptr %60, i32 0, i32 52
  %62 = load ptr, ptr %61, align 8
  %63 = load ptr, ptr @_this, align 8
  call void %62(ptr noundef %63)
  br label %64

64:                                               ; preds = %59, %54
  br label %65

65:                                               ; preds = %64, %48
  %66 = load i8, ptr %4, align 1, !range !5, !noundef !6
  %67 = trunc i8 %66 to i1
  store i1 %67, ptr %2, align 1
  store i32 1, ptr %5, align 4
  br label %68

68:                                               ; preds = %65, %35, %27, %8
  call void @llvm.lifetime.end.p0(i64 1, ptr %4) #10
  %69 = load i1, ptr %2, align 1
  ret i1 %69
}