; Function Attrs: nounwind uwtable
define hidden zeroext i1 @SDL_GL_LoadLibrary_REAL(ptr noundef %0) local_unnamed_addr #0 {
  %2 = load ptr, ptr @_this, align 8
  %.not = icmp eq ptr %2, null
  br i1 %.not, label %3, label %5

3:                                                ; preds = %1
  %4 = tail call zeroext i1 (ptr, ...) @SDL_SetError_REAL(ptr noundef nonnull @.str.1) #19
  br label %30

5:                                                ; preds = %1
  %6 = getelementptr inbounds nuw i8, ptr %2, i64 1032
  %7 = load i32, ptr %6, align 8
  %.not10 = icmp eq i32 %7, 0
  br i1 %.not10, label %14, label %8

8:                                                ; preds = %5
  %.not12 = icmp eq ptr %0, null
  br i1 %.not12, label %.thread, label %9

9:                                                ; preds = %8
  %10 = getelementptr inbounds nuw i8, ptr %2, i64 1036
  %11 = tail call i32 @SDL_strcmp_REAL(ptr noundef nonnull %0, ptr noundef nonnull %10) #19
  %.not13 = icmp eq i32 %11, 0
  br i1 %.not13, label %..thread_crit_edge, label %12

..thread_crit_edge:                               ; preds = %9
  %.pre = load ptr, ptr @_this, align 8
  br label %.thread

12:                                               ; preds = %9
  %13 = tail call zeroext i1 (ptr, ...) @SDL_SetError_REAL(ptr noundef nonnull @.str.61) #19
  br label %30

14:                                               ; preds = %5
  %15 = getelementptr inbounds nuw i8, ptr %2, i64 400
  %16 = load ptr, ptr %15, align 8
  %.not11 = icmp eq ptr %16, null
  br i1 %.not11, label %17, label %20

17:                                               ; preds = %14
  %18 = load ptr, ptr %2, align 8
  %19 = tail call zeroext i1 (ptr, ...) @SDL_SetError_REAL(ptr noundef nonnull @.str.169, ptr noundef nonnull @.str.36, ptr noundef %18) #19
  br label %30

20:                                               ; preds = %14
  %21 = tail call zeroext i1 %16(ptr noundef nonnull %2, ptr noundef %0) #19
  %.pre17 = load ptr, ptr @_this, align 8
  br i1 %21, label %.thread, label %26

.thread:                                          ; preds = %..thread_crit_edge, %8, %20
  %22 = phi ptr [ %.pre, %..thread_crit_edge ], [ %2, %8 ], [ %.pre17, %20 ]
  %23 = getelementptr inbounds nuw i8, ptr %22, i64 1032
  %24 = load i32, ptr %23, align 8
  %25 = add nsw i32 %24, 1
  store i32 %25, ptr %23, align 8
  br label %30

26:                                               ; preds = %20
  %27 = getelementptr inbounds nuw i8, ptr %.pre17, i64 416
  %28 = load ptr, ptr %27, align 8
  %.not14 = icmp eq ptr %28, null
  br i1 %.not14, label %30, label %29

29:                                               ; preds = %26
  tail call void %28(ptr noundef nonnull %.pre17) #19
  br label %30

30:                                               ; preds = %.thread, %29, %26, %17, %12, %3
  %.05 = phi i1 [ %13, %12 ], [ %19, %17 ], [ %4, %3 ], [ false, %26 ], [ false, %29 ], [ true, %.thread ]
  ret i1 %.05
}